; Function Attrs: mustprogress noinline uwtable
define hidden noundef ptr @_ZN6google8protobuf5Arena18CreateMaybeMessageINS0_28GeneratedCodeInfo_AnnotationEJEEEPT_PS1_DpOT0_(ptr noundef %0) local_unnamed_addr #18 align 2 personality ptr @__gxx_personality_v0 {
  %2 = icmp eq ptr %0, null
  br i1 %2, label %_ZN6google8protobuf5Arena14InternalHelperINS0_28GeneratedCodeInfo_AnnotationEE3NewEv.exit, label %6

_ZN6google8protobuf5Arena14InternalHelperINS0_28GeneratedCodeInfo_AnnotationEE3NewEv.exit: ; preds = %1
  %3 = tail call noalias noundef nonnull dereferenceable(64) ptr @_Znwm(i64 noundef 64) #26
  %4 = getelementptr inbounds nuw i8, ptr %3, i64 8
  store i64 0, ptr %4, align 8, !tbaa !8
  store ptr getelementptr inbounds nuw inrange(-16, 152) (i8, ptr @_ZTVN6google8protobuf28GeneratedCodeInfo_AnnotationE, i64 16), ptr %3, align 8, !tbaa !11
  %.ptr.i = getelementptr inbounds nuw i8, ptr %3, i64 16
  %5 = getelementptr inbounds nuw i8, ptr %3, i64 48
  tail call void @llvm.memset.p0.i64(ptr noundef nonnull align 8 dereferenceable(24) %.ptr.i, i8 0, i64 24, i1 false)
  store ptr @_ZN6google8protobuf8internal26fixed_address_empty_stringB5cxx11E, ptr %5, align 8, !tbaa !84
  br label %_ZN6google8protobuf5Arena21CreateMessageInternalINS0_28GeneratedCodeInfo_AnnotationEEEPT_PS1_.exit

6:                                                ; preds = %1
  %7 = tail call noundef ptr @_ZN6google8protobuf5Arena23AllocateAlignedWithHookEmPKSt9type_info(ptr noundef nonnull align 8 dereferenceable(32) %0, i64 noundef 64, ptr noundef nonnull @_ZTIN6google8protobuf28GeneratedCodeInfo_AnnotationE)
  %8 = getelementptr inbounds nuw i8, ptr %7, i64 8
  %9 = ptrtoint ptr %0 to i64
  store i64 %9, ptr %8, align 8, !tbaa !8
  store ptr getelementptr inbounds nuw inrange(-16, 152) (i8, ptr @_ZTVN6google8protobuf28GeneratedCodeInfo_AnnotationE, i64 16), ptr %7, align 8, !tbaa !11
  %.ptr.i.i = getelementptr inbounds nuw i8, ptr %7, i64 16
  %10 = getelementptr inbounds nuw i8, ptr %7, i64 32
  tail call void @llvm.memset.p0.i64(ptr noundef nonnull align 8 dereferenceable(16) %.ptr.i.i, i8 0, i64 16, i1 false)
  store ptr %0, ptr %10, align 8, !tbaa !81
  %11 = getelementptr inbounds nuw i8, ptr %7, i64 48
  store ptr @_ZN6google8protobuf8internal26fixed_address_empty_stringB5cxx11E, ptr %11, align 8, !tbaa !84
  br label %_ZN6google8protobuf5Arena21CreateMessageInternalINS0_28GeneratedCodeInfo_AnnotationEEEPT_PS1_.exit

_ZN6google8protobuf5Arena21CreateMessageInternalINS0_28GeneratedCodeInfo_AnnotationEEEPT_PS1_.exit: ; preds = %_ZN6google8protobuf5Arena14InternalHelperINS0_28GeneratedCodeInfo_AnnotationEE3NewEv.exit, %6
  %.sink2 = phi ptr [ %3, %_ZN6google8protobuf5Arena14InternalHelperINS0_28GeneratedCodeInfo_AnnotationEE3NewEv.exit ], [ %7, %6 ]
  %12 = getelementptr inbounds nuw i8, ptr %.sink2, i64 56
  store i64 0, ptr %12, align 8
  ret ptr %.sink2
}